target datalayout = "e-m:e-p270:32:32-p271:32:32-p272:64:64-i64:64-i128:128-f80:128-n8:16:32:64-S128"
target triple = "x86_64-pc-linux-gnu"

%struct.lua_TValue = type { %union.Value, [1 x i32], i32 }
%union.Value = type { ptr }

; Function Attrs: inlinehint mustprogress nounwind uwtable
define linkonce_odr dso_local noundef zeroext i1 @_Z10luai_veceqPKfS0_(ptr noundef %0, ptr noundef %1) #3 comdat {
  %3 = alloca ptr, align 8
  %4 = alloca ptr, align 8
  store ptr %0, ptr %3, align 8, !tbaa !16
  store ptr %1, ptr %4, align 8, !tbaa !16
  %5 = load ptr, ptr %3, align 8, !tbaa !16
  %6 = getelementptr inbounds float, ptr %5, i64 0
  %7 = load float, ptr %6, align 4, !tbaa !18
  %8 = load ptr, ptr %4, align 8, !tbaa !16
  %9 = getelementptr inbounds float, ptr %8, i64 0
  %10 = load float, ptr %9, align 4, !tbaa !18
  %11 = fcmp oeq float %7, %10
  br i1 %11, label %12, label %28

12:                                               ; preds = %2
  %13 = load ptr, ptr %3, align 8, !tbaa !16
  %14 = getelementptr inbounds float, ptr %13, i64 1
  %15 = load float, ptr %14, align 4, !tbaa !18
  %16 = load ptr, ptr %4, align 8, !tbaa !16
  %17 = getelementptr inbounds float, ptr %16, i64 1
  %18 = load float, ptr %17, align 4, !tbaa !18
  %19 = fcmp oeq float %15, %18
  br i1 %19, label %20, label %28

20:                                               ; preds = %12
  %21 = load ptr, ptr %3, align 8, !tbaa !16
  %22 = getelementptr inbounds float, ptr %21, i64 2
  %23 = load float, ptr %22, align 4, !tbaa !18
  %24 = load ptr, ptr %4, align 8, !tbaa !16
  %25 = getelementptr inbounds float, ptr %24, i64 2
  %26 = load float, ptr %25, align 4, !tbaa !18
  %27 = fcmp oeq float %23, %26
  br label %28

28:                                               ; preds = %20, %12, %2
  %29 = phi i1 [ false, %12 ], [ false, %2 ], [ %27, %20 ]
  ret i1 %29
}

; Function Attrs: mustprogress uwtable
define hidden noundef i32 @_Z16luaO_rawequalObjPK10lua_TValueS1_(ptr noundef %0, ptr noundef %1) #2 {
  %3 = alloca i32, align 4
  %4 = alloca ptr, align 8
  %5 = alloca ptr, align 8
  store ptr %0, ptr %4, align 8, !tbaa !11
  store ptr %1, ptr %5, align 8, !tbaa !11
  %6 = load ptr, ptr %4, align 8, !tbaa !11
  %7 = getelementptr inbounds nuw %struct.lua_TValue, ptr %6, i32 0, i32 2
  %8 = load i32, ptr %7, align 4, !tbaa !14
  %9 = load ptr, ptr %5, align 8, !tbaa !11
  %10 = getelementptr inbounds nuw %struct.lua_TValue, ptr %9, i32 0, i32 2
  %11 = load i32, ptr %10, align 4, !tbaa !14
  %12 = icmp ne i32 %8, %11
  br i1 %12, label %13, label %14

13:                                               ; preds = %2
  store i32 0, ptr %3, align 4
  br label %76

14:                                               ; preds = %2
  %15 = load ptr, ptr %4, align 8, !tbaa !11
  %16 = getelementptr inbounds nuw %struct.lua_TValue, ptr %15, i32 0, i32 2
  %17 = load i32, ptr %16, align 4, !tbaa !14
  switch i32 %17, label %67 [
    i32 0, label %18
    i32 3, label %19
    i32 4, label %28
    i32 1, label %37
    i32 2, label %46
  ]

18:                                               ; preds = %14
  store i32 1, ptr %3, align 4
  br label %76

19:                                               ; preds = %14
  %20 = load ptr, ptr %4, align 8, !tbaa !11
  %21 = getelementptr inbounds nuw %struct.lua_TValue, ptr %20, i32 0, i32 0
  %22 = load double, ptr %21, align 8, !tbaa !10
  %23 = load ptr, ptr %5, align 8, !tbaa !11
  %24 = getelementptr inbounds nuw %struct.lua_TValue, ptr %23, i32 0, i32 0
  %25 = load double, ptr %24, align 8, !tbaa !10
  %26 = fcmp oeq double %22, %25
  %27 = zext i1 %26 to i32
  store i32 %27, ptr %3, align 4
  br label %76

28:                                               ; preds = %14
  %29 = load ptr, ptr %4, align 8, !tbaa !11
  %30 = getelementptr inbounds nuw %struct.lua_TValue, ptr %29, i32 0, i32 0
  %31 = getelementptr inbounds [2 x float], ptr %30, i64 0, i64 0
  %32 = load ptr, ptr %5, align 8, !tbaa !11
  %33 = getelementptr inbounds nuw %struct.lua_TValue, ptr %32, i32 0, i32 0
  %34 = getelementptr inbounds [2 x float], ptr %33, i64 0, i64 0
  %35 = call noundef zeroext i1 @_Z10luai_veceqPKfS0_(ptr noundef %31, ptr noundef %34)
  %36 = zext i1 %35 to i32
  store i32 %36, ptr %3, align 4
  br label %76

37:                                               ; preds = %14
  %38 = load ptr, ptr %4, align 8, !tbaa !11
  %39 = getelementptr inbounds nuw %struct.lua_TValue, ptr %38, i32 0, i32 0
  %40 = load i32, ptr %39, align 8, !tbaa !10
  %41 = load ptr, ptr %5, align 8, !tbaa !11
  %42 = getelementptr inbounds nuw %struct.lua_TValue, ptr %41, i32 0, i32 0
  %43 = load i32, ptr %42, align 8, !tbaa !10
  %44 = icmp eq i32 %40, %43
  %45 = zext i1 %44 to i32
  store i32 %45, ptr %3, align 4
  br label %76

46:                                               ; preds = %14
  %47 = load ptr, ptr %4, align 8, !tbaa !11
  %48 = getelementptr inbounds nuw %struct.lua_TValue, ptr %47, i32 0, i32 0
  %49 = load ptr, ptr %48, align 8, !tbaa !10
  %50 = load ptr, ptr %5, align 8, !tbaa !11
  %51 = getelementptr inbounds nuw %struct.lua_TValue, ptr %50, i32 0, i32 0
  %52 = load ptr, ptr %51, align 8, !tbaa !10
  %53 = icmp eq ptr %49, %52
  br i1 %53, label %54, label %64

54:                                               ; preds = %46
  %55 = load ptr, ptr %4, align 8, !tbaa !11
  %56 = getelementptr inbounds nuw %struct.lua_TValue, ptr %55, i32 0, i32 1
  %57 = getelementptr inbounds [1 x i32], ptr %56, i64 0, i64 0
  %58 = load i32, ptr %57, align 8, !tbaa !4
  %59 = load ptr, ptr %5, align 8, !tbaa !11
  %60 = getelementptr inbounds nuw %struct.lua_TValue, ptr %59, i32 0, i32 1
  %61 = getelementptr inbounds [1 x i32], ptr %60, i64 0, i64 0
  %62 = load i32, ptr %61, align 8, !tbaa !4
  %63 = icmp eq i32 %58, %62
  br label %64

64:                                               ; preds = %54, %46
  %65 = phi i1 [ false, %46 ], [ %63, %54 ]
  %66 = zext i1 %65 to i32
  store i32 %66, ptr %3, align 4
  br label %76

67:                                               ; preds = %14
  %68 = load ptr, ptr %4, align 8, !tbaa !11
  %69 = getelementptr inbounds nuw %struct.lua_TValue, ptr %68, i32 0, i32 0
  %70 = load ptr, ptr %69, align 8, !tbaa !10
  %71 = load ptr, ptr %5, align 8, !tbaa !11
  %72 = getelementptr inbounds nuw %struct.lua_TValue, ptr %71, i32 0, i32 0
  %73 = load ptr, ptr %72, align 8, !tbaa !10
  %74 = icmp eq ptr %70, %73
  %75 = zext i1 %74 to i32
  store i32 %75, ptr %3, align 4
  br label %76

76:                                               ; preds = %67, %64, %37, %28, %19, %18, %13
  %77 = load i32, ptr %3, align 4
  ret i32 %77
}