; Function Attrs: mustprogress nofree norecurse nosync nounwind willreturn memory(argmem: read) uwtable
define hidden noundef range(i32 0, 2) i32 @_Z16luaO_rawequalObjPK10lua_TValueS1_(ptr noundef readonly captures(none) %0, ptr noundef readonly captures(none) %1) local_unnamed_addr #2 {
  %3 = getelementptr inbounds nuw i8, ptr %0, i64 12
  %4 = load i32, ptr %3, align 4, !tbaa !9
  %5 = getelementptr inbounds nuw i8, ptr %1, i64 12
  %6 = load i32, ptr %5, align 4, !tbaa !9
  %.not = icmp eq i32 %4, %6
  br i1 %.not, label %7, label %_Z10luai_veceqPKfS0_.exit

7:                                                ; preds = %2
  switch i32 %4, label %42 [
    i32 0, label %_Z10luai_veceqPKfS0_.exit
    i32 3, label %8
    i32 4, label %12
    i32 1, label %28
    i32 2, label %32
  ]

8:                                                ; preds = %7
  %9 = load double, ptr %0, align 8, !tbaa !6
  %10 = load double, ptr %1, align 8, !tbaa !6
  %11 = fcmp oeq double %9, %10
  br label %_Z10luai_veceqPKfS0_.exit

12:                                               ; preds = %7
  %13 = load float, ptr %0, align 4, !tbaa !12
  %14 = load float, ptr %1, align 4, !tbaa !12
  %15 = fcmp oeq float %13, %14
  br i1 %15, label %16, label %_Z10luai_veceqPKfS0_.exit

16:                                               ; preds = %12
  %17 = getelementptr inbounds nuw i8, ptr %0, i64 4
  %18 = load float, ptr %17, align 4, !tbaa !12
  %19 = getelementptr inbounds nuw i8, ptr %1, i64 4
  %20 = load float, ptr %19, align 4, !tbaa !12
  %21 = fcmp oeq float %18, %20
  br i1 %21, label %22, label %_Z10luai_veceqPKfS0_.exit

22:                                               ; preds = %16
  %23 = getelementptr inbounds nuw i8, ptr %0, i64 8
  %24 = load float, ptr %23, align 4, !tbaa !12
  %25 = getelementptr inbounds nuw i8, ptr %1, i64 8
  %26 = load float, ptr %25, align 4, !tbaa !12
  %27 = fcmp oeq float %24, %26
  br label %_Z10luai_veceqPKfS0_.exit

28:                                               ; preds = %7
  %29 = load i32, ptr %0, align 8, !tbaa !6
  %30 = load i32, ptr %1, align 8, !tbaa !6
  %31 = icmp eq i32 %29, %30
  br label %_Z10luai_veceqPKfS0_.exit

32:                                               ; preds = %7
  %33 = load ptr, ptr %0, align 8, !tbaa !6
  %34 = load ptr, ptr %1, align 8, !tbaa !6
  %35 = icmp eq ptr %33, %34
  br i1 %35, label %36, label %_Z10luai_veceqPKfS0_.exit

36:                                               ; preds = %32
  %37 = getelementptr inbounds nuw i8, ptr %0, i64 8
  %38 = load i32, ptr %37, align 8, !tbaa !14
  %39 = getelementptr inbounds nuw i8, ptr %1, i64 8
  %40 = load i32, ptr %39, align 8, !tbaa !14
  %41 = icmp eq i32 %38, %40
  br label %_Z10luai_veceqPKfS0_.exit

42:                                               ; preds = %7
  %43 = load ptr, ptr %0, align 8, !tbaa !6
  %44 = load ptr, ptr %1, align 8, !tbaa !6
  %45 = icmp eq ptr %43, %44
  br label %_Z10luai_veceqPKfS0_.exit

_Z10luai_veceqPKfS0_.exit:                        ; preds = %22, %16, %12, %32, %36, %7, %2, %42, %28, %8
  %.0.shrunk = phi i1 [ %45, %42 ], [ %31, %28 ], [ %11, %8 ], [ false, %2 ], [ true, %7 ], [ false, %32 ], [ %41, %36 ], [ false, %16 ], [ false, %12 ], [ %27, %22 ]
  %.0 = zext i1 %.0.shrunk to i32
  ret i32 %.0
}